; Function Attrs: mustprogress uwtable
define noundef nonnull align 8 dereferenceable(44) ptr @_ZN32pxrInternal_v0_24__pxrReserved__18PcpPrimIndex_Graph17_GetWriteableNodeEm(ptr nocapture noundef nonnull align 8 dereferenceable(57) %0, i64 noundef %1) local_unnamed_addr #0 align 2 {
  %3 = alloca %"class.pxrInternal_v0_24__pxrReserved__::TfCallContext", align 8
  %4 = getelementptr inbounds nuw i8, ptr %0, i64 16
  %5 = load ptr, ptr %4, align 8
  %6 = getelementptr inbounds nuw i8, ptr %5, i64 8
  %7 = load ptr, ptr %6, align 8
  %8 = load ptr, ptr %5, align 8
  %9 = ptrtoint ptr %7 to i64
  %10 = ptrtoint ptr %8 to i64
  %11 = sub i64 %9, %10
  %12 = sdiv exact i64 %11, 48
  %13 = icmp ult i64 %1, %12
  br i1 %13, label %20, label %14

14:                                               ; preds = %2
  store ptr @.str, ptr %3, align 8
  %15 = getelementptr inbounds nuw i8, ptr %3, i64 8
  store ptr @__func__._ZN32pxrInternal_v0_24__pxrReserved__18PcpPrimIndex_Graph17_GetWriteableNodeEm, ptr %15, align 8
  %16 = getelementptr inbounds nuw i8, ptr %3, i64 16
  store i64 744, ptr %16, align 8
  %17 = getelementptr inbounds nuw i8, ptr %3, i64 24
  store ptr @__PRETTY_FUNCTION__._ZN32pxrInternal_v0_24__pxrReserved__18PcpPrimIndex_Graph17_GetWriteableNodeEm, ptr %17, align 8
  %18 = getelementptr inbounds nuw i8, ptr %3, i64 32
  store i8 0, ptr %18, align 8
  %19 = call noundef zeroext i1 @_ZN32pxrInternal_v0_24__pxrReserved__21Tf_FailedVerifyHelperERKNS_13TfCallContextEPKcS4_(ptr noundef nonnull align 8 dereferenceable(33) %3, ptr noundef nonnull @.str.31, ptr noundef null)
  br label %20

20:                                               ; preds = %2, %14
  call void @_ZN32pxrInternal_v0_24__pxrReserved__18PcpPrimIndex_Graph21_DetachSharedNodePoolEv(ptr noundef nonnull align 8 dereferenceable(57) %0)
  %21 = load ptr, ptr %4, align 8
  %22 = load ptr, ptr %21, align 8
  %23 = getelementptr inbounds %"struct.pxrInternal_v0_24__pxrReserved__::PcpPrimIndex_Graph::_Node", ptr %22, i64 %1
  ret ptr %23
}